
asms/pi/pi.elf:     file format elf32-littleriscv


Disassembly of section .text:

00000000 <_start>:
   0:	00010137          	lui	sp,0x10
   4:	050000ef          	jal	54 <main>
   8:	fe000fa3          	sb	zero,-1(zero) # ffffffff <judgeResult+0xffffd30f>
   c:	0000006f          	j	c <_start+0xc>

00000010 <printInt>:
  10:	000037b7          	lui	a5,0x3
  14:	cf07a703          	lw	a4,-784(a5) # 2cf0 <judgeResult>
  18:	00e54533          	xor	a0,a0,a4
  1c:	0ad50513          	add	a0,a0,173
  20:	cea7a823          	sw	a0,-784(a5)
  24:	00008067          	ret

00000028 <printStr>:
  28:	00054703          	lbu	a4,0(a0)
  2c:	02070263          	beqz	a4,50 <printStr+0x28>
  30:	000036b7          	lui	a3,0x3
  34:	cf06a783          	lw	a5,-784(a3) # 2cf0 <judgeResult>
  38:	00f747b3          	xor	a5,a4,a5
  3c:	20978793          	add	a5,a5,521
  40:	cef6a823          	sw	a5,-784(a3)
  44:	00154703          	lbu	a4,1(a0)
  48:	00150513          	add	a0,a0,1
  4c:	fe0716e3          	bnez	a4,38 <printStr+0x10>
  50:	00008067          	ret

00000054 <main>:
  54:	00003737          	lui	a4,0x3
  58:	12c00793          	li	a5,300
  5c:	bc070713          	add	a4,a4,-1088 # 2bc0 <f+0x2a94>
  60:	00e78733          	add	a4,a5,a4
  64:	7d000693          	li	a3,2000
  68:	00d7a023          	sw	a3,0(a5)
  6c:	00478793          	add	a5,a5,4
  70:	fef71ce3          	bne	a4,a5,68 <main+0x14>
  74:	00003f37          	lui	t5,0x3
  78:	cf0f2303          	lw	t1,-784(t5) # 2cf0 <judgeResult>
  7c:	00001837          	lui	a6,0x1
  80:	000038b7          	lui	a7,0x3
  84:	00002537          	lui	a0,0x2
  88:	aef80e13          	add	t3,a6,-1297 # aef <f+0x9c3>
  8c:	ce888893          	add	a7,a7,-792 # 2ce8 <f+0x2bbc>
  90:	5df80813          	add	a6,a6,1503
  94:	00000e93          	li	t4,0
  98:	71050513          	add	a0,a0,1808 # 2710 <f+0x25e4>
  9c:	fff00f93          	li	t6,-1
  a0:	0048a703          	lw	a4,4(a7)
  a4:	000e0593          	mv	a1,t3
  a8:	ffe80613          	add	a2,a6,-2
  ac:	02a70733          	mul	a4,a4,a0
  b0:	00088693          	mv	a3,a7
  b4:	030767b3          	rem	a5,a4,a6
  b8:	03074733          	div	a4,a4,a6
  bc:	00f8a223          	sw	a5,4(a7)
  c0:	0006a783          	lw	a5,0(a3)
  c4:	ffc68693          	add	a3,a3,-4
  c8:	02b70733          	mul	a4,a4,a1
  cc:	fff58593          	add	a1,a1,-1
  d0:	02a787b3          	mul	a5,a5,a0
  d4:	00e787b3          	add	a5,a5,a4
  d8:	02c7e733          	rem	a4,a5,a2
  dc:	00e6a223          	sw	a4,4(a3)
  e0:	02c7c733          	div	a4,a5,a2
  e4:	ffe60613          	add	a2,a2,-2
  e8:	fc059ce3          	bnez	a1,c0 <main+0x6c>
  ec:	fe480813          	add	a6,a6,-28
  f0:	ff2e0e13          	add	t3,t3,-14
  f4:	fc888893          	add	a7,a7,-56
  f8:	02a747b3          	div	a5,a4,a0
  fc:	01d787b3          	add	a5,a5,t4
 100:	0067c333          	xor	t1,a5,t1
 104:	02a76eb3          	rem	t4,a4,a0
 108:	0ad30313          	add	t1,t1,173
 10c:	f9f81ae3          	bne	a6,t6,a0 <main+0x4c>
 110:	00a34793          	xor	a5,t1,10
 114:	20978793          	add	a5,a5,521
 118:	0fd00513          	li	a0,253
 11c:	02a7e533          	rem	a0,a5,a0
 120:	ceff2823          	sw	a5,-784(t5)
 124:	00008067          	ret
