
asms/matrix_mul/matrix_mul.elf:     file format elf32-littleriscv


Disassembly of section .text:

00000000 <_start>:
   0:	00010137          	lui	sp,0x10
   4:	00c000ef          	jal	10 <main>
   8:	00100073          	ebreak
   c:	0000006f          	j	c <_start+0xc>

00000010 <main>:
  10:	fd010113          	add	sp,sp,-48 # ffd0 <C+0xfbc4>
  14:	02812623          	sw	s0,44(sp)
  18:	03010413          	add	s0,sp,48
  1c:	fe042623          	sw	zero,-20(s0)
  20:	0840006f          	j	a4 <main+0x94>
  24:	fe042423          	sw	zero,-24(s0)
  28:	0640006f          	j	8c <main+0x7c>
  2c:	fec42703          	lw	a4,-20(s0)
  30:	fe842783          	lw	a5,-24(s0)
  34:	00f70733          	add	a4,a4,a5
  38:	20c00693          	li	a3,524
  3c:	fec42783          	lw	a5,-20(s0)
  40:	00379613          	sll	a2,a5,0x3
  44:	fe842783          	lw	a5,-24(s0)
  48:	00f607b3          	add	a5,a2,a5
  4c:	00279793          	sll	a5,a5,0x2
  50:	00f687b3          	add	a5,a3,a5
  54:	00e7a023          	sw	a4,0(a5)
  58:	fec42783          	lw	a5,-20(s0)
  5c:	00178713          	add	a4,a5,1
  60:	30c00693          	li	a3,780
  64:	fec42783          	lw	a5,-20(s0)
  68:	00379613          	sll	a2,a5,0x3
  6c:	fe842783          	lw	a5,-24(s0)
  70:	00f607b3          	add	a5,a2,a5
  74:	00279793          	sll	a5,a5,0x2
  78:	00f687b3          	add	a5,a3,a5
  7c:	00e7a023          	sw	a4,0(a5)
  80:	fe842783          	lw	a5,-24(s0)
  84:	00178793          	add	a5,a5,1
  88:	fef42423          	sw	a5,-24(s0)
  8c:	fe842703          	lw	a4,-24(s0)
  90:	00700793          	li	a5,7
  94:	f8e7dce3          	bge	a5,a4,2c <main+0x1c>
  98:	fec42783          	lw	a5,-20(s0)
  9c:	00178793          	add	a5,a5,1
  a0:	fef42623          	sw	a5,-20(s0)
  a4:	fec42703          	lw	a4,-20(s0)
  a8:	00700793          	li	a5,7
  ac:	f6e7dce3          	bge	a5,a4,24 <main+0x14>
  b0:	fe042623          	sw	zero,-20(s0)
  b4:	0c80006f          	j	17c <main+0x16c>
  b8:	fe042423          	sw	zero,-24(s0)
  bc:	0a80006f          	j	164 <main+0x154>
  c0:	fe042023          	sw	zero,-32(s0)
  c4:	fe042223          	sw	zero,-28(s0)
  c8:	0600006f          	j	128 <main+0x118>
  cc:	20c00713          	li	a4,524
  d0:	fec42783          	lw	a5,-20(s0)
  d4:	00379693          	sll	a3,a5,0x3
  d8:	fe442783          	lw	a5,-28(s0)
  dc:	00f687b3          	add	a5,a3,a5
  e0:	00279793          	sll	a5,a5,0x2
  e4:	00f707b3          	add	a5,a4,a5
  e8:	0007a703          	lw	a4,0(a5)
  ec:	30c00693          	li	a3,780
  f0:	fe442783          	lw	a5,-28(s0)
  f4:	00379613          	sll	a2,a5,0x3
  f8:	fe842783          	lw	a5,-24(s0)
  fc:	00f607b3          	add	a5,a2,a5
 100:	00279793          	sll	a5,a5,0x2
 104:	00f687b3          	add	a5,a3,a5
 108:	0007a783          	lw	a5,0(a5)
 10c:	02f707b3          	mul	a5,a4,a5
 110:	fe042703          	lw	a4,-32(s0)
 114:	00f707b3          	add	a5,a4,a5
 118:	fef42023          	sw	a5,-32(s0)
 11c:	fe442783          	lw	a5,-28(s0)
 120:	00178793          	add	a5,a5,1
 124:	fef42223          	sw	a5,-28(s0)
 128:	fe442703          	lw	a4,-28(s0)
 12c:	00700793          	li	a5,7
 130:	f8e7dee3          	bge	a5,a4,cc <main+0xbc>
 134:	40c00713          	li	a4,1036
 138:	fec42783          	lw	a5,-20(s0)
 13c:	00379693          	sll	a3,a5,0x3
 140:	fe842783          	lw	a5,-24(s0)
 144:	00f687b3          	add	a5,a3,a5
 148:	00279793          	sll	a5,a5,0x2
 14c:	00f707b3          	add	a5,a4,a5
 150:	fe042703          	lw	a4,-32(s0)
 154:	00e7a023          	sw	a4,0(a5)
 158:	fe842783          	lw	a5,-24(s0)
 15c:	00178793          	add	a5,a5,1
 160:	fef42423          	sw	a5,-24(s0)
 164:	fe842703          	lw	a4,-24(s0)
 168:	00700793          	li	a5,7
 16c:	f4e7dae3          	bge	a5,a4,c0 <main+0xb0>
 170:	fec42783          	lw	a5,-20(s0)
 174:	00178793          	add	a5,a5,1
 178:	fef42623          	sw	a5,-20(s0)
 17c:	fec42703          	lw	a4,-20(s0)
 180:	00700793          	li	a5,7
 184:	f2e7dae3          	bge	a5,a4,b8 <main+0xa8>
 188:	fc042e23          	sw	zero,-36(s0)
 18c:	fe042623          	sw	zero,-20(s0)
 190:	05c0006f          	j	1ec <main+0x1dc>
 194:	fe042423          	sw	zero,-24(s0)
 198:	03c0006f          	j	1d4 <main+0x1c4>
 19c:	40c00713          	li	a4,1036
 1a0:	fec42783          	lw	a5,-20(s0)
 1a4:	00379693          	sll	a3,a5,0x3
 1a8:	fe842783          	lw	a5,-24(s0)
 1ac:	00f687b3          	add	a5,a3,a5
 1b0:	00279793          	sll	a5,a5,0x2
 1b4:	00f707b3          	add	a5,a4,a5
 1b8:	0007a783          	lw	a5,0(a5)
 1bc:	fdc42703          	lw	a4,-36(s0)
 1c0:	00f707b3          	add	a5,a4,a5
 1c4:	fcf42e23          	sw	a5,-36(s0)
 1c8:	fe842783          	lw	a5,-24(s0)
 1cc:	00178793          	add	a5,a5,1
 1d0:	fef42423          	sw	a5,-24(s0)
 1d4:	fe842703          	lw	a4,-24(s0)
 1d8:	00700793          	li	a5,7
 1dc:	fce7d0e3          	bge	a5,a4,19c <main+0x18c>
 1e0:	fec42783          	lw	a5,-20(s0)
 1e4:	00178793          	add	a5,a5,1
 1e8:	fef42623          	sw	a5,-20(s0)
 1ec:	fec42703          	lw	a4,-20(s0)
 1f0:	00700793          	li	a5,7
 1f4:	fae7d0e3          	bge	a5,a4,194 <main+0x184>
 1f8:	fdc42783          	lw	a5,-36(s0)
 1fc:	00078513          	mv	a0,a5
 200:	02c12403          	lw	s0,44(sp)
 204:	03010113          	add	sp,sp,48
 208:	00008067          	ret
