
asms/vector_mul/vector_mul.elf:     file format elf32-littleriscv


Disassembly of section .text:

00000000 <_start>:
   0:	00010137          	lui	sp,0x10
   4:	00c000ef          	jal	10 <main>
   8:	fe000fa3          	sb	zero,-1(zero) # ffffffff <results_data+0xfffffc4f>
   c:	0000006f          	j	c <_start+0xc>

00000010 <main>:
  10:	09000713          	li	a4,144
  14:	19070813          	add	a6,a4,400
  18:	09000793          	li	a5,144
  1c:	00080593          	mv	a1,a6
  20:	00080513          	mv	a0,a6
  24:	09000613          	li	a2,144
  28:	00000693          	li	a3,0
  2c:	00200313          	li	t1,2
  30:	06400893          	li	a7,100
  34:	00d62023          	sw	a3,0(a2)
  38:	00652023          	sw	t1,0(a0)
  3c:	00168693          	add	a3,a3,1
  40:	00460613          	add	a2,a2,4
  44:	00450513          	add	a0,a0,4
  48:	ff1696e3          	bne	a3,a7,34 <main+0x24>
  4c:	32078793          	add	a5,a5,800
  50:	00078613          	mv	a2,a5
  54:	00072683          	lw	a3,0(a4)
  58:	0005a503          	lw	a0,0(a1)
  5c:	00460613          	add	a2,a2,4
  60:	00470713          	add	a4,a4,4
  64:	02a686b3          	mul	a3,a3,a0
  68:	00458593          	add	a1,a1,4
  6c:	fed62e23          	sw	a3,-4(a2)
  70:	ff0712e3          	bne	a4,a6,54 <main+0x44>
  74:	19078693          	add	a3,a5,400
  78:	00000513          	li	a0,0
  7c:	0007a703          	lw	a4,0(a5)
  80:	00478793          	add	a5,a5,4
  84:	00e50533          	add	a0,a0,a4
  88:	fef69ae3          	bne	a3,a5,7c <main+0x6c>
  8c:	00008067          	ret
